ccollections
Counter
p0
((dp1
S'cogmech'
p2
F16.512549537648614
sS'nonfl'
p3
F0.3963011889035667
sS'funct'
p4
F59.841479524438576
sS'certain'
p5
F0.3963011889035667
sS'insight'
p6
F1.321003963011889
sS'assent'
p7
F9.511228533685602
sS'number'
p8
F5.680317040951123
sS'sad'
p9
F0.5284015852047557
sS'past'
p10
F5.019815059445178
sS'see'
p11
F0.26420079260237783
sS'affect'
p12
F6.605019815059445
sS'negate'
p13
F2.3778071334214004
sS'home'
p14
F1.321003963011889
sS'conj'
p15
F13.870541611624835
sS'anx'
p16
F0.13210039630118892
sS'preps'
p17
F8.850726552179657
sS'ppron'
p18
F9.64332892998679
sS'Numerals'
p19
F0.13210039630118892
sS'inhib'
p20
F0.5284015852047557
sS'pronoun'
p21
F15.323645970937912
sS'adverb'
p22
F7.133421400264201
sS'space'
p23
F4.227212681638045
sS'filler'
p24
F0.9247027741083224
sS'ipron'
p25
F5.680317040951123
sS'Six Letter Words'
p26
F6.340819022457067
sS'negemo'
p27
F0.9247027741083224
sS'percept'
p28
F0.5284015852047557
sS'quant'
p29
F1.1889035667107002
sS'discrep'
p30
F4.491413474240423
sS'relativ'
p31
F11.360634081902246
sS'you'
p32
F3.963011889035667
sS'Sentences'
p33
I2
sS'incl'
p34
F5.812417437252312
sS'achieve'
p35
F0.5284015852047557
sS'relig'
p36
F0.3963011889035667
sS'bio'
p37
F0.13210039630118892
sS'tentat'
p38
F2.774108322324967
sS'Dictionary Words'
p39
F85.33685601056803
sS'leisure'
p40
F1.0568031704095113
sS'verb'
p41
F25.23117569352708
sS'hear'
p42
F0.26420079260237783
sS'they'
p43
F0.26420079260237783
sS'article'
p44
F3.5667107001321003
sS'excl'
p45
F3.4346103038309117
sS'Words Per Sentence'
p46
F378.5
sS'Quote Marks'
p47
F0.26420079260237783
sS'present'
p48
F20.739762219286657
sS'All Punctuation'
p49
F0.3963011889035667
sS'we'
p50
F1.321003963011889
sS'cause'
p51
F0.9247027741083224
sS'Other Punctuation'
p52
F0.13210039630118892
sS'Unique Words'
p53
F25.627476882430646
sS'ingest'
p54
F0.13210039630118892
sS'Word Count'
p55
I757
sS'motion'
p56
F3.038309114927345
sS'i'
p57
F3.4346103038309117
sS'future'
p58
F13.474240422721268
sS'time'
p59
F5.284015852047556
sS'posemo'
p60
F5.680317040951123
sS'auxverb'
p61
F20.211360634081903
sS'Newlines'
p62
I2
sS'shehe'
p63
F0.6605019815059445
sS'social'
p64
F7.001321003963012
stp65
Rp66
.