ccollections
Counter
p0
((dp1
S'nonfl'
p2
F1.7275747508305648
sS'funct'
p3
F61.59468438538206
sS'feel'
p4
F0.132890365448505
sS'money'
p5
F0.19933554817275748
sS'insight'
p6
F0.9966777408637874
sS'number'
p7
F4.717607973421927
sS'Unique Words'
p8
F20.0
sS'negate'
p9
F4.318936877076412
sS'negemo'
p10
F0.8637873754152824
sS'Numerals'
p11
F0.0664451827242525
sS'adverb'
p12
F12.624584717607974
sS'ipron'
p13
F5.4485049833887045
sS'percept'
p14
F1.196013289036545
sS'Dictionary Words'
p15
F86.7109634551495
sS'achieve'
p16
F0.9966777408637874
sS'relig'
p17
F0.26578073089701
sS'bio'
p18
F0.0664451827242525
sS'humans'
p19
F0.19933554817275748
sS'leisure'
p20
F1.3953488372093024
sS'verb'
p21
F31.029900332225914
sS'hear'
p22
F0.53156146179402
sS'they'
p23
F0.132890365448505
sS'affect'
p24
F8.637873754152825
sS'excl'
p25
F3.122923588039867
sS'Quote Marks'
p26
F0.132890365448505
sS'present'
p27
F27.308970099667775
sS'cause'
p28
F1.4617940199335548
sS'future'
p29
F13.687707641196013
sS'Sentences'
p30
I2
sS'auxverb'
p31
F23.78737541528239
sS'shehe'
p32
F0.26578073089701
sS'Newlines'
p33
I2
sS'pronoun'
p34
F18.006644518272424
sS'certain'
p35
F0.26578073089701
sS'assent'
p36
F6.179401993355482
sS'tentat'
p37
F2.6578073089700998
sS'sad'
p38
F0.46511627906976744
sS'past'
p39
F6.312292358803987
sS'see'
p40
F0.46511627906976744
sS'anger'
p41
F0.0664451827242525
sS'home'
p42
F0.7308970099667774
sS'conj'
p43
F9.102990033222591
sS'preps'
p44
F8.039867109634551
sS'ppron'
p45
F12.55813953488372
sS'inhib'
p46
F1.196013289036545
sS'space'
p47
F4.186046511627907
sS'filler'
p48
F0.19933554817275748
sS'posemo'
p49
F7.707641196013289
sS'Six Letter Words'
p50
F9.83388704318937
sS'quant'
p51
F0.9302325581395349
sS'discrep'
p52
F2.857142857142857
sS'relativ'
p53
F12.0265780730897
sS'you'
p54
F4.584717607973422
sS'incl'
p55
F5.980066445182724
sS'body'
p56
F0.0664451827242525
sS'cogmech'
p57
F17.209302325581394
sS'we'
p58
F3.654485049833887
sS'social'
p59
F9.30232558139535
sS'article'
p60
F3.654485049833887
sS'Words Per Sentence'
p61
F752.5
sS'All Punctuation'
p62
F0.19933554817275748
sS'i'
p63
F3.920265780730897
sS'Other Punctuation'
p64
F0.0664451827242525
sS'Word Count'
p65
I1505
sS'motion'
p66
F3.920265780730897
sS'swear'
p67
F0.0664451827242525
sS'time'
p68
F4.25249169435216
stp69
Rp70
.